; Function Attrs: mustprogress uwtable
define hidden noundef nonnull align 8 dereferenceable(24) ptr @_ZN2cv7barcode15get_AB_PatternsEv() local_unnamed_addr #0 personality ptr @__gxx_personality_v0 {
  %1 = load atomic i8, ptr @_ZGVZN2cv7barcode15get_AB_PatternsEvE11AB_Patterns acquire, align 8
  %2 = icmp eq i8 %1, 0
  br i1 %2, label %3, label %8, !prof !30

3:                                                ; preds = %0
  %4 = tail call i32 @__cxa_guard_acquire(ptr nonnull @_ZGVZN2cv7barcode15get_AB_PatternsEvE11AB_Patterns) #22
  %.not = icmp eq i32 %4, 0
  br i1 %.not, label %8, label %5

5:                                                ; preds = %3
  invoke fastcc void @"_ZZN2cv7barcode15get_AB_PatternsEvENK3$_0clEv"()
          to label %6 unwind label %9

6:                                                ; preds = %5
  %7 = tail call i32 @__cxa_atexit(ptr nonnull @_ZNSt6vectorIS_IiSaIiEESaIS1_EED2Ev, ptr nonnull @_ZZN2cv7barcode15get_AB_PatternsEvE11AB_Patterns, ptr nonnull @__dso_handle) #22
  tail call void @__cxa_guard_release(ptr nonnull @_ZGVZN2cv7barcode15get_AB_PatternsEvE11AB_Patterns) #22
  br label %8

8:                                                ; preds = %6, %3, %0
  ret ptr @_ZZN2cv7barcode15get_AB_PatternsEvE11AB_Patterns

9:                                                ; preds = %5
  %10 = landingpad { ptr, i32 }
          cleanup
  tail call void @__cxa_guard_abort(ptr nonnull @_ZGVZN2cv7barcode15get_AB_PatternsEvE11AB_Patterns) #22
  resume { ptr, i32 } %10
}